; ModuleID = '37/1739.cpp'
source_filename = "37/1739.cpp"
target datalayout = "e-m:e-p270:32:32-p271:32:32-p272:64:64-i64:64-f80:128-n8:16:32:64-S128"
target triple = "x86_64-pc-linux-gnu"

%"class.std::ios_base::Init" = type { i8 }
%"class.std::basic_istream" = type { i32 (...)**, i64, %"class.std::basic_ios" }
%"class.std::basic_ios" = type { %"class.std::ios_base", %"class.std::basic_ostream"*, i8, i8, %"class.std::basic_streambuf"*, %"class.std::ctype"*, %"class.std::num_put"*, %"class.std::num_get"* }
%"class.std::ios_base" = type { i32 (...)**, i64, i64, i32, i32, i32, %"struct.std::ios_base::_Callback_list"*, %"struct.std::ios_base::_Words", [8 x %"struct.std::ios_base::_Words"], i32, %"struct.std::ios_base::_Words"*, %"class.std::locale" }
%"struct.std::ios_base::_Callback_list" = type { %"struct.std::ios_base::_Callback_list"*, void (i32, %"class.std::ios_base"*, i32)*, i32, i32 }
%"struct.std::ios_base::_Words" = type { i8*, i64 }
%"class.std::locale" = type { %"class.std::locale::_Impl"* }
%"class.std::locale::_Impl" = type { i32, %"class.std::locale::facet"**, i64, %"class.std::locale::facet"**, i8** }
%"class.std::locale::facet" = type <{ i32 (...)**, i32, [4 x i8] }>
%"class.std::basic_ostream" = type { i32 (...)**, %"class.std::basic_ios" }
%"class.std::basic_streambuf" = type { i32 (...)**, i8*, i8*, i8*, i8*, i8*, i8*, %"class.std::locale" }
%"class.std::ctype" = type <{ %"class.std::locale::facet.base", [4 x i8], %struct.__locale_struct*, i8, [7 x i8], i32*, i32*, i16*, i8, [256 x i8], [256 x i8], i8, [6 x i8] }>
%"class.std::locale::facet.base" = type <{ i32 (...)**, i32 }>
%struct.__locale_struct = type { [13 x %struct.__locale_data*], i16*, i32*, i32*, [13 x i8*] }
%struct.__locale_data = type opaque
%"class.std::num_put" = type { %"class.std::locale::facet.base", [4 x i8] }
%"class.std::num_get" = type { %"class.std::locale::facet.base", [4 x i8] }

@_ZStL8__ioinit = internal global %"class.std::ios_base::Init" zeroinitializer, align 1
@__dso_handle = external hidden global i8
@_ZSt3cin = external dso_local global %"class.std::basic_istream", align 8
@_ZSt4cout = external dso_local global %"class.std::basic_ostream", align 8
@.str = private unnamed_addr constant [3 x i8] c"no\00", align 1
@llvm.global_ctors = appending global [1 x { i32, void ()*, i8* }] [{ i32, void ()*, i8* } { i32 65535, void ()* @_GLOBAL__sub_I_1739.cpp, i8* null }]

; Function Attrs: noinline uwtable
define internal void @__cxx_global_var_init() #0 section ".text.startup" {
  call void @_ZNSt8ios_base4InitC1Ev(%"class.std::ios_base::Init"* @_ZStL8__ioinit)
  %1 = call i32 @__cxa_atexit(void (i8*)* bitcast (void (%"class.std::ios_base::Init"*)* @_ZNSt8ios_base4InitD1Ev to void (i8*)*), i8* getelementptr inbounds (%"class.std::ios_base::Init", %"class.std::ios_base::Init"* @_ZStL8__ioinit, i32 0, i32 0), i8* @__dso_handle) #3
  ret void
}

declare dso_local void @_ZNSt8ios_base4InitC1Ev(%"class.std::ios_base::Init"*) unnamed_addr #1

; Function Attrs: nounwind
declare dso_local void @_ZNSt8ios_base4InitD1Ev(%"class.std::ios_base::Init"*) unnamed_addr #2

; Function Attrs: nounwind
declare dso_local i32 @__cxa_atexit(void (i8*)*, i8*, i8*) #3

; Function Attrs: noinline norecurse uwtable
define dso_local i32 @main() #4 {
  %1 = alloca i32, align 4
  %2 = alloca i32, align 4
  %3 = alloca [100000 x i8], align 16
  %4 = alloca i8, align 1
  %5 = alloca i32, align 4
  %6 = alloca i32, align 4
  %7 = alloca i32, align 4
  %8 = alloca i32, align 4
  %9 = alloca i32, align 4
  store i32 0, i32* %1, align 4
  %10 = call dereferenceable(280) %"class.std::basic_istream"* @_ZNSirsERi(%"class.std::basic_istream"* @_ZSt3cin, i32* dereferenceable(4) %2)
  %11 = call i32 @_ZNSi3getEv(%"class.std::basic_istream"* @_ZSt3cin)
  %12 = trunc i32 %11 to i8
  store i8 %12, i8* %4, align 1
  store i32 1, i32* %5, align 4
  br label %13

13:                                               ; preds = %101, %0
  %14 = load i32, i32* %5, align 4
  %15 = load i32, i32* %2, align 4
  %16 = icmp sle i32 %14, %15
  br i1 %16, label %17, label %104

17:                                               ; preds = %13
  store i32 1, i32* %6, align 4
  store i32 0, i32* %9, align 4
  %18 = call i32 @_ZNSi3getEv(%"class.std::basic_istream"* @_ZSt3cin)
  %19 = trunc i32 %18 to i8
  %20 = load i32, i32* %6, align 4
  %21 = sext i32 %20 to i64
  %22 = getelementptr inbounds [100000 x i8], [100000 x i8]* %3, i64 0, i64 %21
  store i8 %19, i8* %22, align 1
  br label %23

23:                                               ; preds = %30, %17
  %24 = load i32, i32* %6, align 4
  %25 = sext i32 %24 to i64
  %26 = getelementptr inbounds [100000 x i8], [100000 x i8]* %3, i64 0, i64 %25
  %27 = load i8, i8* %26, align 1
  %28 = sext i8 %27 to i32
  %29 = icmp ne i32 %28, 10
  br i1 %29, label %30, label %38

30:                                               ; preds = %23
  %31 = load i32, i32* %6, align 4
  %32 = add nsw i32 %31, 1
  store i32 %32, i32* %6, align 4
  %33 = call i32 @_ZNSi3getEv(%"class.std::basic_istream"* @_ZSt3cin)
  %34 = trunc i32 %33 to i8
  %35 = load i32, i32* %6, align 4
  %36 = sext i32 %35 to i64
  %37 = getelementptr inbounds [100000 x i8], [100000 x i8]* %3, i64 0, i64 %36
  store i8 %34, i8* %37, align 1
  br label %23

38:                                               ; preds = %23
  %39 = load i32, i32* %6, align 4
  %40 = add nsw i32 %39, -1
  store i32 %40, i32* %6, align 4
  store i32 1, i32* %7, align 4
  br label %41

41:                                               ; preds = %91, %38
  %42 = load i32, i32* %7, align 4
  %43 = load i32, i32* %6, align 4
  %44 = icmp sle i32 %42, %43
  br i1 %44, label %45, label %94

45:                                               ; preds = %41
  store i32 1, i32* %8, align 4
  br label %46

46:                                               ; preds = %69, %45
  %47 = load i32, i32* %8, align 4
  %48 = load i32, i32* %6, align 4
  %49 = icmp sle i32 %47, %48
  br i1 %49, label %50, label %72

50:                                               ; preds = %46
  %51 = load i32, i32* %7, align 4
  %52 = load i32, i32* %8, align 4
  %53 = icmp eq i32 %51, %52
  br i1 %53, label %54, label %55

54:                                               ; preds = %50
  br label %69

55:                                               ; preds = %50
  %56 = load i32, i32* %7, align 4
  %57 = sext i32 %56 to i64
  %58 = getelementptr inbounds [100000 x i8], [100000 x i8]* %3, i64 0, i64 %57
  %59 = load i8, i8* %58, align 1
  %60 = sext i8 %59 to i32
  %61 = load i32, i32* %8, align 4
  %62 = sext i32 %61 to i64
  %63 = getelementptr inbounds [100000 x i8], [100000 x i8]* %3, i64 0, i64 %62
  %64 = load i8, i8* %63, align 1
  %65 = sext i8 %64 to i32
  %66 = icmp eq i32 %60, %65
  br i1 %66, label %67, label %68

67:                                               ; preds = %55
  br label %72

68:                                               ; preds = %55
  br label %69

69:                                               ; preds = %68, %54
  %70 = load i32, i32* %8, align 4
  %71 = add nsw i32 %70, 1
  store i32 %71, i32* %8, align 4
  br label %46

72:                                               ; preds = %67, %46
  %73 = load i32, i32* %8, align 4
  %74 = load i32, i32* %6, align 4
  %75 = add nsw i32 %74, 1
  %76 = icmp eq i32 %73, %75
  br i1 %76, label %77, label %86

77:                                               ; preds = %72
  %78 = load i32, i32* %7, align 4
  %79 = sext i32 %78 to i64
  %80 = getelementptr inbounds [100000 x i8], [100000 x i8]* %3, i64 0, i64 %79
  %81 = load i8, i8* %80, align 1
  %82 = call dereferenceable(272) %"class.std::basic_ostream"* @_ZStlsISt11char_traitsIcEERSt13basic_ostreamIcT_ES5_c(%"class.std::basic_ostream"* dereferenceable(272) @_ZSt4cout, i8 signext %81)
  %83 = call dereferenceable(272) %"class.std::basic_ostream"* @_ZNSolsEPFRSoS_E(%"class.std::basic_ostream"* %82, %"class.std::basic_ostream"* (%"class.std::basic_ostream"*)* @_ZSt4endlIcSt11char_traitsIcEERSt13basic_ostreamIT_T0_ES6_)
  %84 = load i32, i32* %9, align 4
  %85 = add nsw i32 %84, 1
  store i32 %85, i32* %9, align 4
  br label %86

86:                                               ; preds = %77, %72
  %87 = load i32, i32* %9, align 4
  %88 = icmp eq i32 %87, 1
  br i1 %88, label %89, label %90

89:                                               ; preds = %86
  br label %94

90:                                               ; preds = %86
  br label %91

91:                                               ; preds = %90
  %92 = load i32, i32* %7, align 4
  %93 = add nsw i32 %92, 1
  store i32 %93, i32* %7, align 4
  br label %41

94:                                               ; preds = %89, %41
  %95 = load i32, i32* %9, align 4
  %96 = icmp eq i32 %95, 0
  br i1 %96, label %97, label %100

97:                                               ; preds = %94
  %98 = call dereferenceable(272) %"class.std::basic_ostream"* @_ZStlsISt11char_traitsIcEERSt13basic_ostreamIcT_ES5_PKc(%"class.std::basic_ostream"* dereferenceable(272) @_ZSt4cout, i8* getelementptr inbounds ([3 x i8], [3 x i8]* @.str, i64 0, i64 0))
  %99 = call dereferenceable(272) %"class.std::basic_ostream"* @_ZNSolsEPFRSoS_E(%"class.std::basic_ostream"* %98, %"class.std::basic_ostream"* (%"class.std::basic_ostream"*)* @_ZSt4endlIcSt11char_traitsIcEERSt13basic_ostreamIT_T0_ES6_)
  br label %100

100:                                              ; preds = %97, %94
  br label %101

101:                                              ; preds = %100
  %102 = load i32, i32* %5, align 4
  %103 = add nsw i32 %102, 1
  store i32 %103, i32* %5, align 4
  br label %13

104:                                              ; preds = %13
  ret i32 0
}

declare dso_local dereferenceable(280) %"class.std::basic_istream"* @_ZNSirsERi(%"class.std::basic_istream"*, i32* dereferenceable(4)) #1

declare dso_local i32 @_ZNSi3getEv(%"class.std::basic_istream"*) #1

declare dso_local dereferenceable(272) %"class.std::basic_ostream"* @_ZStlsISt11char_traitsIcEERSt13basic_ostreamIcT_ES5_c(%"class.std::basic_ostream"* dereferenceable(272), i8 signext) #1

declare dso_local dereferenceable(272) %"class.std::basic_ostream"* @_ZNSolsEPFRSoS_E(%"class.std::basic_ostream"*, %"class.std::basic_ostream"* (%"class.std::basic_ostream"*)*) #1

declare dso_local dereferenceable(272) %"class.std::basic_ostream"* @_ZSt4endlIcSt11char_traitsIcEERSt13basic_ostreamIT_T0_ES6_(%"class.std::basic_ostream"* dereferenceable(272)) #1

declare dso_local dereferenceable(272) %"class.std::basic_ostream"* @_ZStlsISt11char_traitsIcEERSt13basic_ostreamIcT_ES5_PKc(%"class.std::basic_ostream"* dereferenceable(272), i8*) #1

; Function Attrs: noinline uwtable
define internal void @_GLOBAL__sub_I_1739.cpp() #0 section ".text.startup" {
  call void @__cxx_global_var_init()
  ret void
}


!llvm.module.flags = !{!0}
!llvm.ident = !{!1}

!0 = !{i32 1, !"wchar_size", i32 4}
!1 = !{!"clang version 10.0.0-4ubuntu1 "}
